target datalayout = "e-m:e-p270:32:32-p271:32:32-p272:64:64-i64:64-i128:128-f80:128-n8:16:32:64-S128"
target triple = "x86_64-pc-linux-gnu"

@.str.9 = private unnamed_addr constant [5 x i8] c"true\00", align 1
@.str.17 = private unnamed_addr constant [2 x i8] c"1\00", align 1
@.str.18 = private unnamed_addr constant [4 x i8] c"yes\00", align 1
@.str.19 = private unnamed_addr constant [3 x i8] c"on\00", align 1

; Function Attrs: mustprogress nounwind uwtable
define noundef zeroext i1 @_ZN32pxrInternal_v0_24__pxrReserved__13TfUnstringifyIbEET_RKNSt7__cxx1112basic_stringIcSt11char_traitsIcESaIcEEEPb(ptr noundef nonnull align 8 dereferenceable(32) %0, ptr noundef %1) #5 {
  %3 = alloca ptr, align 8
  %4 = alloca ptr, align 8
  store ptr %0, ptr %3, align 8
  store ptr %1, ptr %4, align 8
  %5 = load ptr, ptr %3, align 8
  %6 = call noundef ptr @_ZNKSt7__cxx1112basic_stringIcSt11char_traitsIcESaIcEE5c_strEv(ptr noundef nonnull align 8 dereferenceable(32) %5) #13
  %7 = call i32 @strcmp(ptr noundef %6, ptr noundef @.str.9) #15
  %8 = icmp eq i32 %7, 0
  br i1 %8, label %24, label %9

9:                                                ; preds = %2
  %10 = load ptr, ptr %3, align 8
  %11 = call noundef ptr @_ZNKSt7__cxx1112basic_stringIcSt11char_traitsIcESaIcEE5c_strEv(ptr noundef nonnull align 8 dereferenceable(32) %10) #13
  %12 = call i32 @strcmp(ptr noundef %11, ptr noundef @.str.17) #15
  %13 = icmp eq i32 %12, 0
  br i1 %13, label %24, label %14

14:                                               ; preds = %9
  %15 = load ptr, ptr %3, align 8
  %16 = call noundef ptr @_ZNKSt7__cxx1112basic_stringIcSt11char_traitsIcESaIcEE5c_strEv(ptr noundef nonnull align 8 dereferenceable(32) %15) #13
  %17 = call i32 @strcmp(ptr noundef %16, ptr noundef @.str.18) #15
  %18 = icmp eq i32 %17, 0
  br i1 %18, label %24, label %19

19:                                               ; preds = %14
  %20 = load ptr, ptr %3, align 8
  %21 = call noundef ptr @_ZNKSt7__cxx1112basic_stringIcSt11char_traitsIcESaIcEE5c_strEv(ptr noundef nonnull align 8 dereferenceable(32) %20) #13
  %22 = call i32 @strcmp(ptr noundef %21, ptr noundef @.str.19) #15
  %23 = icmp eq i32 %22, 0
  br label %24

24:                                               ; preds = %19, %14, %9, %2
  %25 = phi i1 [ true, %14 ], [ true, %9 ], [ true, %2 ], [ %23, %19 ]
  ret i1 %25
}