; Function Attrs: mustprogress nounwind uwtable
define noundef zeroext i1 @_ZN32pxrInternal_v0_24__pxrReserved__13TfUnstringifyIbEET_RKNSt7__cxx1112basic_stringIcSt11char_traitsIcESaIcEEEPb(ptr noundef nonnull align 8 dereferenceable(32) %0, ptr nocapture noundef readnone %1) local_unnamed_addr #6 {
  %3 = tail call noundef ptr @_ZNKSt7__cxx1112basic_stringIcSt11char_traitsIcESaIcEE5c_strEv(ptr noundef nonnull align 8 dereferenceable(32) %0) #22
  %4 = tail call i32 @strcmp(ptr noundef nonnull dereferenceable(1) %3, ptr noundef nonnull dereferenceable(5) @.str.9) #23
  %5 = icmp eq i32 %4, 0
  br i1 %5, label %.tail4, label %sub_0

sub_0:                                            ; preds = %2
  %6 = tail call noundef ptr @_ZNKSt7__cxx1112basic_stringIcSt11char_traitsIcESaIcEE5c_strEv(ptr noundef nonnull align 8 dereferenceable(32) %0) #22
  %7 = load i8, ptr %6, align 1
  %.not = icmp eq i8 %7, 49
  br i1 %.not, label %.tail, label %.tail.thread

.tail:                                            ; preds = %sub_0
  %8 = getelementptr inbounds i8, ptr %6, i64 1
  %9 = load i8, ptr %8, align 1
  %10 = icmp eq i8 %9, 0
  br i1 %10, label %.tail4, label %.tail.thread

.tail.thread:                                     ; preds = %sub_0, %.tail
  %11 = tail call noundef ptr @_ZNKSt7__cxx1112basic_stringIcSt11char_traitsIcESaIcEE5c_strEv(ptr noundef nonnull align 8 dereferenceable(32) %0) #22
  %12 = tail call i32 @strcmp(ptr noundef nonnull dereferenceable(1) %11, ptr noundef nonnull dereferenceable(4) @.str.18) #23
  %13 = icmp eq i32 %12, 0
  br i1 %13, label %.tail4, label %sub_05

sub_05:                                           ; preds = %.tail.thread
  %14 = tail call noundef ptr @_ZNKSt7__cxx1112basic_stringIcSt11char_traitsIcESaIcEE5c_strEv(ptr noundef nonnull align 8 dereferenceable(32) %0) #22
  %15 = load i8, ptr %14, align 1
  %.not8 = icmp eq i8 %15, 111
  br i1 %.not8, label %sub_16, label %.tail4

sub_16:                                           ; preds = %sub_05
  %16 = getelementptr inbounds i8, ptr %14, i64 1
  %17 = load i8, ptr %16, align 1
  %.not9 = icmp eq i8 %17, 110
  br i1 %.not9, label %sub_2, label %.tail4

sub_2:                                            ; preds = %sub_16
  %18 = getelementptr inbounds i8, ptr %14, i64 2
  %19 = load i8, ptr %18, align 1
  %20 = icmp eq i8 %19, 0
  br label %.tail4

.tail4:                                           ; preds = %sub_2, %sub_16, %sub_05, %.tail.thread, %.tail, %2
  %21 = phi i1 [ true, %.tail.thread ], [ true, %.tail ], [ true, %2 ], [ false, %sub_05 ], [ false, %sub_16 ], [ %20, %sub_2 ]
  ret i1 %21
}